target datalayout = "e-m:e-p270:32:32-p271:32:32-p272:64:64-i64:64-i128:128-f80:128-n8:16:32:64-S128"
target triple = "x86_64-pc-linux-gnu"

%struct.jvmtiInterface_1_ = type { ptr, ptr, ptr, ptr, ptr, ptr, ptr, ptr, ptr, ptr, ptr, ptr, ptr, ptr, ptr, ptr, ptr, ptr, ptr, ptr, ptr, ptr, ptr, ptr, ptr, ptr, ptr, ptr, ptr, ptr, ptr, ptr, ptr, ptr, ptr, ptr, ptr, ptr, ptr, ptr, ptr, ptr, ptr, ptr, ptr, ptr, ptr, ptr, ptr, ptr, ptr, ptr, ptr, ptr, ptr, ptr, ptr, ptr, ptr, ptr, ptr, ptr, ptr, ptr, ptr, ptr, ptr, ptr, ptr, ptr, ptr, ptr, ptr, ptr, ptr, ptr, ptr, ptr, ptr, ptr, ptr, ptr, ptr, ptr, ptr, ptr, ptr, ptr, ptr, ptr, ptr, ptr, ptr, ptr, ptr, ptr, ptr, ptr, ptr, ptr, ptr, ptr, ptr, ptr, ptr, ptr, ptr, ptr, ptr, ptr, ptr, ptr, ptr, ptr, ptr, ptr, ptr, ptr, ptr, ptr, ptr, ptr, ptr, ptr, ptr, ptr, ptr, ptr, ptr, ptr, ptr, ptr, ptr, ptr, ptr, ptr, ptr, ptr, ptr, ptr, ptr, ptr, ptr, ptr, ptr, ptr, ptr, ptr, ptr, ptr, ptr, ptr, ptr, ptr, ptr, ptr }
%struct.JNINativeInterface_ = type { ptr, ptr, ptr, ptr, ptr, ptr, ptr, ptr, ptr, ptr, ptr, ptr, ptr, ptr, ptr, ptr, ptr, ptr, ptr, ptr, ptr, ptr, ptr, ptr, ptr, ptr, ptr, ptr, ptr, ptr, ptr, ptr, ptr, ptr, ptr, ptr, ptr, ptr, ptr, ptr, ptr, ptr, ptr, ptr, ptr, ptr, ptr, ptr, ptr, ptr, ptr, ptr, ptr, ptr, ptr, ptr, ptr, ptr, ptr, ptr, ptr, ptr, ptr, ptr, ptr, ptr, ptr, ptr, ptr, ptr, ptr, ptr, ptr, ptr, ptr, ptr, ptr, ptr, ptr, ptr, ptr, ptr, ptr, ptr, ptr, ptr, ptr, ptr, ptr, ptr, ptr, ptr, ptr, ptr, ptr, ptr, ptr, ptr, ptr, ptr, ptr, ptr, ptr, ptr, ptr, ptr, ptr, ptr, ptr, ptr, ptr, ptr, ptr, ptr, ptr, ptr, ptr, ptr, ptr, ptr, ptr, ptr, ptr, ptr, ptr, ptr, ptr, ptr, ptr, ptr, ptr, ptr, ptr, ptr, ptr, ptr, ptr, ptr, ptr, ptr, ptr, ptr, ptr, ptr, ptr, ptr, ptr, ptr, ptr, ptr, ptr, ptr, ptr, ptr, ptr, ptr, ptr, ptr, ptr, ptr, ptr, ptr, ptr, ptr, ptr, ptr, ptr, ptr, ptr, ptr, ptr, ptr, ptr, ptr, ptr, ptr, ptr, ptr, ptr, ptr, ptr, ptr, ptr, ptr, ptr, ptr, ptr, ptr, ptr, ptr, ptr, ptr, ptr, ptr, ptr, ptr, ptr, ptr, ptr, ptr, ptr, ptr, ptr, ptr, ptr, ptr, ptr, ptr, ptr, ptr, ptr, ptr, ptr, ptr, ptr, ptr, ptr, ptr, ptr, ptr, ptr, ptr, ptr, ptr, ptr, ptr, ptr, ptr, ptr, ptr, ptr, ptr, ptr, ptr, ptr }

@.str.1 = private unnamed_addr constant [60 x i8] c"src/java.instrument/share/native/libinstrument/JPLISAgent.c\00", align 1
@.str.53 = private unnamed_addr constant [25 x i8] c"retransformerEnv != NULL\00", align 1
@.str.54 = private unnamed_addr constant [16 x i8] c"classes != NULL\00", align 1
@.str.55 = private unnamed_addr constant [15 x i8] c"!errorOccurred\00", align 1
@.str.56 = private unnamed_addr constant [16 x i8] c"numClasses != 0\00", align 1
@.str.57 = private unnamed_addr constant [26 x i8] c"classArray[index] != NULL\00", align 1

; Function Attrs: nounwind uwtable
define hidden void @retransformClasses(ptr noundef %0, ptr noundef %1, ptr noundef %2) #0 {
  %4 = alloca ptr, align 8
  %5 = alloca ptr, align 8
  %6 = alloca ptr, align 8
  %7 = alloca ptr, align 8
  %8 = alloca i8, align 1
  %9 = alloca i32, align 4
  %10 = alloca i32, align 4
  %11 = alloca ptr, align 8
  %12 = alloca i32, align 4
  store ptr %0, ptr %4, align 8
  store ptr %1, ptr %5, align 8
  store ptr %2, ptr %6, align 8
  %13 = load ptr, ptr %5, align 8
  %14 = call ptr @retransformableEnvironment(ptr noundef %13)
  store ptr %14, ptr %7, align 8
  store i8 0, ptr %8, align 1
  store i32 0, ptr %9, align 4
  store i32 0, ptr %10, align 4
  store ptr null, ptr %11, align 8
  %15 = load ptr, ptr %7, align 8
  %16 = icmp eq ptr %15, null
  br i1 %16, label %17, label %22

17:                                               ; preds = %3
  %18 = load ptr, ptr %7, align 8
  %19 = icmp ne ptr %18, null
  %20 = zext i1 %19 to i32
  %21 = trunc i32 %20 to i8
  call void @JPLISAssertCondition(i8 noundef zeroext %21, ptr noundef @.str.53, ptr noundef @.str.1, i32 noundef 1140)
  store i8 1, ptr %8, align 1
  store i32 99, ptr %9, align 4
  br label %22

22:                                               ; preds = %17, %3
  %23 = load i8, ptr %8, align 1
  %24 = icmp ne i8 %23, 0
  br i1 %24, label %33, label %25

25:                                               ; preds = %22
  %26 = load ptr, ptr %6, align 8
  %27 = icmp eq ptr %26, null
  br i1 %27, label %28, label %33

28:                                               ; preds = %25
  %29 = load ptr, ptr %6, align 8
  %30 = icmp ne ptr %29, null
  %31 = zext i1 %30 to i32
  %32 = trunc i32 %31 to i8
  call void @JPLISAssertCondition(i8 noundef zeroext %32, ptr noundef @.str.54, ptr noundef @.str.1, i32 noundef 1147)
  store i8 1, ptr %8, align 1
  store i32 100, ptr %9, align 4
  br label %33

33:                                               ; preds = %28, %25, %22
  %34 = load i8, ptr %8, align 1
  %35 = icmp ne i8 %34, 0
  br i1 %35, label %62, label %36

36:                                               ; preds = %33
  %37 = load ptr, ptr %4, align 8
  %38 = load ptr, ptr %37, align 8
  %39 = getelementptr inbounds %struct.JNINativeInterface_, ptr %38, i32 0, i32 171
  %40 = load ptr, ptr %39, align 8
  %41 = load ptr, ptr %4, align 8
  %42 = load ptr, ptr %6, align 8
  %43 = call i32 %40(ptr noundef %41, ptr noundef %42)
  store i32 %43, ptr %10, align 4
  %44 = load ptr, ptr %4, align 8
  %45 = call zeroext i8 @checkForThrowable(ptr noundef %44)
  store i8 %45, ptr %8, align 1
  %46 = load i8, ptr %8, align 1
  %47 = icmp ne i8 %46, 0
  %48 = xor i1 %47, true
  %49 = zext i1 %48 to i32
  %50 = trunc i32 %49 to i8
  call void @JPLISAssertCondition(i8 noundef zeroext %50, ptr noundef @.str.55, ptr noundef @.str.1, i32 noundef 1155)
  %51 = load i8, ptr %8, align 1
  %52 = icmp ne i8 %51, 0
  br i1 %52, label %61, label %53

53:                                               ; preds = %36
  %54 = load i32, ptr %10, align 4
  %55 = icmp eq i32 %54, 0
  br i1 %55, label %56, label %61

56:                                               ; preds = %53
  %57 = load i32, ptr %10, align 4
  %58 = icmp ne i32 %57, 0
  %59 = zext i1 %58 to i32
  %60 = trunc i32 %59 to i8
  call void @JPLISAssertCondition(i8 noundef zeroext %60, ptr noundef @.str.56, ptr noundef @.str.1, i32 noundef 1158)
  store i8 1, ptr %8, align 1
  store i32 100, ptr %9, align 4
  br label %61

61:                                               ; preds = %56, %53, %36
  br label %62

62:                                               ; preds = %61, %33
  %63 = load i8, ptr %8, align 1
  %64 = icmp ne i8 %63, 0
  br i1 %64, label %84, label %65

65:                                               ; preds = %62
  %66 = load ptr, ptr %7, align 8
  %67 = load i32, ptr %10, align 4
  %68 = sext i32 %67 to i64
  %69 = mul i64 %68, 8
  %70 = call ptr @allocate(ptr noundef %66, i64 noundef %69)
  store ptr %70, ptr %11, align 8
  %71 = load ptr, ptr %11, align 8
  %72 = icmp eq ptr %71, null
  %73 = zext i1 %72 to i32
  %74 = trunc i32 %73 to i8
  store i8 %74, ptr %8, align 1
  %75 = load i8, ptr %8, align 1
  %76 = icmp ne i8 %75, 0
  %77 = xor i1 %76, true
  %78 = zext i1 %77 to i32
  %79 = trunc i32 %78 to i8
  call void @JPLISAssertCondition(i8 noundef zeroext %79, ptr noundef @.str.55, ptr noundef @.str.1, i32 noundef 1168)
  %80 = load i8, ptr %8, align 1
  %81 = icmp ne i8 %80, 0
  br i1 %81, label %82, label %83

82:                                               ; preds = %65
  store i32 110, ptr %9, align 4
  br label %83

83:                                               ; preds = %82, %65
  br label %84

84:                                               ; preds = %83, %62
  %85 = load i8, ptr %8, align 1
  %86 = icmp ne i8 %85, 0
  br i1 %86, label %136, label %87

87:                                               ; preds = %84
  store i32 0, ptr %12, align 4
  br label %88

88:                                               ; preds = %132, %87
  %89 = load i32, ptr %12, align 4
  %90 = load i32, ptr %10, align 4
  %91 = icmp slt i32 %89, %90
  br i1 %91, label %92, label %135

92:                                               ; preds = %88
  %93 = load ptr, ptr %4, align 8
  %94 = load ptr, ptr %93, align 8
  %95 = getelementptr inbounds %struct.JNINativeInterface_, ptr %94, i32 0, i32 173
  %96 = load ptr, ptr %95, align 8
  %97 = load ptr, ptr %4, align 8
  %98 = load ptr, ptr %6, align 8
  %99 = load i32, ptr %12, align 4
  %100 = call ptr %96(ptr noundef %97, ptr noundef %98, i32 noundef %99)
  %101 = load ptr, ptr %11, align 8
  %102 = load i32, ptr %12, align 4
  %103 = sext i32 %102 to i64
  %104 = getelementptr inbounds ptr, ptr %101, i64 %103
  store ptr %100, ptr %104, align 8
  %105 = load ptr, ptr %4, align 8
  %106 = call zeroext i8 @checkForThrowable(ptr noundef %105)
  store i8 %106, ptr %8, align 1
  %107 = load i8, ptr %8, align 1
  %108 = icmp ne i8 %107, 0
  %109 = xor i1 %108, true
  %110 = zext i1 %109 to i32
  %111 = trunc i32 %110 to i8
  call void @JPLISAssertCondition(i8 noundef zeroext %111, ptr noundef @.str.55, ptr noundef @.str.1, i32 noundef 1179)
  %112 = load i8, ptr %8, align 1
  %113 = icmp ne i8 %112, 0
  br i1 %113, label %114, label %115

114:                                              ; preds = %92
  br label %135

115:                                              ; preds = %92
  %116 = load ptr, ptr %11, align 8
  %117 = load i32, ptr %12, align 4
  %118 = sext i32 %117 to i64
  %119 = getelementptr inbounds ptr, ptr %116, i64 %118
  %120 = load ptr, ptr %119, align 8
  %121 = icmp eq ptr %120, null
  br i1 %121, label %122, label %131

122:                                              ; preds = %115
  %123 = load ptr, ptr %11, align 8
  %124 = load i32, ptr %12, align 4
  %125 = sext i32 %124 to i64
  %126 = getelementptr inbounds ptr, ptr %123, i64 %125
  %127 = load ptr, ptr %126, align 8
  %128 = icmp ne ptr %127, null
  %129 = zext i1 %128 to i32
  %130 = trunc i32 %129 to i8
  call void @JPLISAssertCondition(i8 noundef zeroext %130, ptr noundef @.str.57, ptr noundef @.str.1, i32 noundef 1185)
  store i8 1, ptr %8, align 1
  store i32 100, ptr %9, align 4
  br label %135

131:                                              ; preds = %115
  br label %132

132:                                              ; preds = %131
  %133 = load i32, ptr %12, align 4
  %134 = add nsw i32 %133, 1
  store i32 %134, ptr %12, align 4
  br label %88, !llvm.loop !8

135:                                              ; preds = %122, %114, %88
  br label %136

136:                                              ; preds = %135, %84
  %137 = load i8, ptr %8, align 1
  %138 = icmp ne i8 %137, 0
  br i1 %138, label %152, label %139

139:                                              ; preds = %136
  %140 = load ptr, ptr %7, align 8
  %141 = load ptr, ptr %140, align 8
  %142 = getelementptr inbounds %struct.jvmtiInterface_1_, ptr %141, i32 0, i32 151
  %143 = load ptr, ptr %142, align 8
  %144 = load ptr, ptr %7, align 8
  %145 = load i32, ptr %10, align 4
  %146 = load ptr, ptr %11, align 8
  %147 = call i32 %143(ptr noundef %144, i32 noundef %145, ptr noundef %146)
  store i32 %147, ptr %9, align 4
  %148 = load i32, ptr %9, align 4
  %149 = icmp ne i32 %148, 0
  %150 = zext i1 %149 to i32
  %151 = trunc i32 %150 to i8
  store i8 %151, ptr %8, align 1
  br label %152

152:                                              ; preds = %139, %136
  %153 = load ptr, ptr %11, align 8
  %154 = icmp ne ptr %153, null
  br i1 %154, label %155, label %158

155:                                              ; preds = %152
  %156 = load ptr, ptr %7, align 8
  %157 = load ptr, ptr %11, align 8
  call void @deallocate(ptr noundef %156, ptr noundef %157)
  br label %158

158:                                              ; preds = %155, %152
  %159 = load i32, ptr %9, align 4
  %160 = icmp eq i32 %159, 112
  br i1 %160, label %161, label %162

161:                                              ; preds = %158
  br label %170

162:                                              ; preds = %158
  %163 = load i32, ptr %9, align 4
  %164 = icmp ne i32 %163, 0
  br i1 %164, label %165, label %168

165:                                              ; preds = %162
  %166 = load ptr, ptr %4, align 8
  %167 = load i32, ptr %9, align 4
  call void @createAndThrowThrowableFromJVMTIErrorCode(ptr noundef %166, i32 noundef %167)
  br label %168

168:                                              ; preds = %165, %162
  %169 = load ptr, ptr %4, align 8
  call void @mapThrownThrowableIfNecessary(ptr noundef %169, ptr noundef @redefineClassMapper)
  br label %170

170:                                              ; preds = %168, %161
  ret void
}