; Function Attrs: nounwind uwtable
define hidden void @retransformClasses(ptr noundef %0, ptr noundef %1, ptr noundef %2) local_unnamed_addr #0 {
  %4 = tail call ptr @retransformableEnvironment(ptr noundef %1)
  %.not = icmp eq ptr %4, null
  br i1 %.not, label %.thread, label %5

.thread:                                          ; preds = %3
  tail call void @JPLISAssertCondition(i8 noundef zeroext 0, ptr noundef nonnull @.str.53, ptr noundef nonnull @.str.1, i32 noundef 1140) #10
  br label %.thread113.thread

5:                                                ; preds = %3
  %6 = icmp eq ptr %2, null
  br i1 %6, label %7, label %8

7:                                                ; preds = %5
  tail call void @JPLISAssertCondition(i8 noundef zeroext 0, ptr noundef nonnull @.str.54, ptr noundef nonnull @.str.1, i32 noundef 1147) #10
  br label %.thread113.thread

8:                                                ; preds = %5
  %9 = load ptr, ptr %0, align 8
  %10 = getelementptr inbounds i8, ptr %9, i64 1368
  %11 = load ptr, ptr %10, align 8
  %12 = tail call i32 %11(ptr noundef nonnull %0, ptr noundef nonnull %2) #10
  %13 = tail call zeroext i8 @checkForThrowable(ptr noundef nonnull %0) #10
  %.not68 = icmp eq i8 %13, 0
  %14 = zext i1 %.not68 to i8
  tail call void @JPLISAssertCondition(i8 noundef zeroext %14, ptr noundef nonnull @.str.55, ptr noundef nonnull @.str.1, i32 noundef 1155) #10
  %15 = icmp eq i32 %12, 0
  %or.cond3 = select i1 %.not68, i1 %15, i1 false
  br i1 %or.cond3, label %16, label %17

16:                                               ; preds = %8
  tail call void @JPLISAssertCondition(i8 noundef zeroext 0, ptr noundef nonnull @.str.56, ptr noundef nonnull @.str.1, i32 noundef 1158) #10
  br label %.thread113.thread

17:                                               ; preds = %8
  br i1 %.not68, label %18, label %.thread113.thread119

18:                                               ; preds = %17
  %19 = sext i32 %12 to i64
  %20 = shl nsw i64 %19, 3
  %21 = tail call ptr @allocate(ptr noundef nonnull %4, i64 noundef %20) #10
  %22 = icmp ne ptr %21, null
  %23 = zext i1 %22 to i8
  tail call void @JPLISAssertCondition(i8 noundef zeroext %23, ptr noundef nonnull @.str.55, ptr noundef nonnull @.str.1, i32 noundef 1168) #10
  %spec.select75 = select i1 %22, i32 0, i32 110
  br i1 %22, label %.preheader, label %.thread113.thread

.preheader:                                       ; preds = %18
  %24 = icmp sgt i32 %12, 0
  br i1 %24, label %.lr.ph.preheader, label %.thread105

.lr.ph.preheader:                                 ; preds = %.preheader
  %wide.trip.count = zext nneg i32 %12 to i64
  br label %.lr.ph

25:                                               ; preds = %34
  %indvars.iv.next = add nuw nsw i64 %indvars.iv, 1
  %exitcond.not = icmp eq i64 %indvars.iv.next, %wide.trip.count
  br i1 %exitcond.not, label %.thread105, label %.lr.ph, !llvm.loop !8

.lr.ph:                                           ; preds = %.lr.ph.preheader, %25
  %indvars.iv = phi i64 [ 0, %.lr.ph.preheader ], [ %indvars.iv.next, %25 ]
  %26 = load ptr, ptr %0, align 8
  %27 = getelementptr inbounds i8, ptr %26, i64 1384
  %28 = load ptr, ptr %27, align 8
  %29 = trunc nuw nsw i64 %indvars.iv to i32
  %30 = tail call ptr %28(ptr noundef nonnull %0, ptr noundef nonnull %2, i32 noundef %29) #10
  %31 = getelementptr inbounds ptr, ptr %21, i64 %indvars.iv
  store ptr %30, ptr %31, align 8
  %32 = tail call zeroext i8 @checkForThrowable(ptr noundef nonnull %0) #10
  %.not71 = icmp eq i8 %32, 0
  %33 = zext i1 %.not71 to i8
  tail call void @JPLISAssertCondition(i8 noundef zeroext %33, ptr noundef nonnull @.str.55, ptr noundef nonnull @.str.1, i32 noundef 1179) #10
  br i1 %.not71, label %34, label %.thread113

34:                                               ; preds = %.lr.ph
  %35 = load ptr, ptr %31, align 8
  %36 = icmp eq ptr %35, null
  br i1 %36, label %.thread113.thread125, label %25

.thread113.thread125:                             ; preds = %34
  tail call void @JPLISAssertCondition(i8 noundef zeroext 0, ptr noundef nonnull @.str.57, ptr noundef nonnull @.str.1, i32 noundef 1185) #10
  tail call void @deallocate(ptr noundef nonnull %4, ptr noundef nonnull %21) #10
  br label %.thread113.thread

.thread105:                                       ; preds = %25, %.preheader
  %37 = load ptr, ptr %4, align 8
  %38 = getelementptr inbounds i8, ptr %37, i64 1208
  %39 = load ptr, ptr %38, align 8
  %40 = tail call i32 %39(ptr noundef nonnull %4, i32 noundef %12, ptr noundef nonnull %21) #10
  br label %.thread113

.thread113:                                       ; preds = %.lr.ph, %.thread105
  %.5110 = phi i32 [ %40, %.thread105 ], [ %spec.select75, %.lr.ph ]
  tail call void @deallocate(ptr noundef nonnull %4, ptr noundef nonnull %21) #10
  switch i32 %.5110, label %.thread113.thread [
    i32 112, label %41
    i32 0, label %.thread113.thread119
  ]

.thread113.thread:                                ; preds = %18, %.thread113.thread125, %7, %.thread, %16, %.thread113
  %.5111118 = phi i32 [ %.5110, %.thread113 ], [ 100, %7 ], [ 99, %.thread ], [ 100, %16 ], [ 100, %.thread113.thread125 ], [ 110, %18 ]
  tail call void @createAndThrowThrowableFromJVMTIErrorCode(ptr noundef %0, i32 noundef %.5111118) #10
  br label %.thread113.thread119

.thread113.thread119:                             ; preds = %17, %.thread113, %.thread113.thread
  tail call void @mapThrownThrowableIfNecessary(ptr noundef %0, ptr noundef nonnull @redefineClassMapper) #10
  br label %41

41:                                               ; preds = %.thread113, %.thread113.thread119
  ret void
}